target datalayout = "e-m:e-p270:32:32-p271:32:32-p272:64:64-i64:64-i128:128-f80:128-n8:16:32:64-S128"
target triple = "x86_64-pc-linux-gnu"

%struct.AVFilterGraphSegment = type { ptr, ptr, i64, ptr }
%struct.AVFilterContext = type { ptr, ptr, ptr, ptr, ptr, i32, ptr, ptr, i32, ptr, ptr, i32, i32, ptr, ptr, ptr, ptr, i32, ptr, i32, i32 }
%struct.AVFilterChain = type { ptr, i64 }
%struct.AVFilterParams = type { ptr, ptr, ptr, ptr, ptr, i32, ptr, i32 }
%struct.FFFilterContext = type { %struct.AVFilterContext, ptr, i32, i32, ptr, ptr, ptr }

@__func__.avfilter_graph_segment_init = private unnamed_addr constant [28 x i8] c"avfilter_graph_segment_init\00", align 1
@.str.26 = private unnamed_addr constant [117 x i8] c"A creation-pending filter '%s' present in the segment. All filters must be created or disabled before calling %s().\0A\00", align 1

; Function Attrs: inlinehint nounwind uwtable
define internal ptr @fffilterctx(ptr noundef %0) #5 {
  %2 = alloca ptr, align 8
  store ptr %0, ptr %2, align 8, !tbaa !30
  %3 = load ptr, ptr %2, align 8, !tbaa !30
  ret ptr %3
}

; Function Attrs: nounwind uwtable
define internal i32 @fail_creation_pending(ptr noundef %0, ptr noundef %1, ptr noundef %2) #0 {
  %4 = alloca ptr, align 8
  %5 = alloca ptr, align 8
  %6 = alloca ptr, align 8
  store ptr %0, ptr %4, align 8, !tbaa !23
  store ptr %1, ptr %5, align 8, !tbaa !21
  store ptr %2, ptr %6, align 8, !tbaa !21
  %7 = load ptr, ptr %4, align 8, !tbaa !23
  %8 = getelementptr inbounds nuw %struct.AVFilterGraphSegment, ptr %7, i32 0, i32 0
  %9 = load ptr, ptr %8, align 8, !tbaa !34
  %10 = load ptr, ptr %5, align 8, !tbaa !21
  %11 = load ptr, ptr %6, align 8, !tbaa !21
  call void (ptr, i32, ptr, ...) @av_log(ptr noundef %9, i32 noundef 16, ptr noundef @.str.26, ptr noundef %10, ptr noundef %11)
  ret i32 -22
}

; Function Attrs: nounwind uwtable
define i32 @avfilter_graph_segment_init(ptr noundef %0, i32 noundef %1) #0 {
  %3 = alloca i32, align 4
  %4 = alloca ptr, align 8
  %5 = alloca i32, align 4
  %6 = alloca i64, align 8
  %7 = alloca i32, align 4
  %8 = alloca ptr, align 8
  %9 = alloca i64, align 8
  %10 = alloca ptr, align 8
  %11 = alloca i32, align 4
  store ptr %0, ptr %4, align 8, !tbaa !23
  store i32 %1, ptr %5, align 4, !tbaa !22
  %12 = load i32, ptr %5, align 4, !tbaa !22
  %13 = icmp ne i32 %12, 0
  br i1 %13, label %14, label %15

14:                                               ; preds = %2
  store i32 -38, ptr %3, align 4
  br label %97

15:                                               ; preds = %2
  call void @llvm.lifetime.start.p0(i64 8, ptr %6) #7
  store i64 0, ptr %6, align 8, !tbaa !43
  br label %16

16:                                               ; preds = %91, %15
  %17 = load i64, ptr %6, align 8, !tbaa !43
  %18 = load ptr, ptr %4, align 8, !tbaa !23
  %19 = getelementptr inbounds nuw %struct.AVFilterGraphSegment, ptr %18, i32 0, i32 2
  %20 = load i64, ptr %19, align 8, !tbaa !41
  %21 = icmp ult i64 %17, %20
  br i1 %21, label %23, label %22

22:                                               ; preds = %16
  store i32 2, ptr %7, align 4
  br label %94

23:                                               ; preds = %16
  call void @llvm.lifetime.start.p0(i64 8, ptr %8) #7
  %24 = load ptr, ptr %4, align 8, !tbaa !23
  %25 = getelementptr inbounds nuw %struct.AVFilterGraphSegment, ptr %24, i32 0, i32 1
  %26 = load ptr, ptr %25, align 8, !tbaa !44
  %27 = load i64, ptr %6, align 8, !tbaa !43
  %28 = getelementptr inbounds nuw ptr, ptr %26, i64 %27
  %29 = load ptr, ptr %28, align 8, !tbaa !39
  store ptr %29, ptr %8, align 8, !tbaa !39
  call void @llvm.lifetime.start.p0(i64 8, ptr %9) #7
  store i64 0, ptr %9, align 8, !tbaa !43
  br label %30

30:                                               ; preds = %82, %23
  %31 = load i64, ptr %9, align 8, !tbaa !43
  %32 = load ptr, ptr %8, align 8, !tbaa !39
  %33 = getelementptr inbounds nuw %struct.AVFilterChain, ptr %32, i32 0, i32 1
  %34 = load i64, ptr %33, align 8, !tbaa !65
  %35 = icmp ult i64 %31, %34
  br i1 %35, label %37, label %36

36:                                               ; preds = %30
  store i32 5, ptr %7, align 4
  br label %85

37:                                               ; preds = %30
  call void @llvm.lifetime.start.p0(i64 8, ptr %10) #7
  %38 = load ptr, ptr %8, align 8, !tbaa !39
  %39 = getelementptr inbounds nuw %struct.AVFilterChain, ptr %38, i32 0, i32 0
  %40 = load ptr, ptr %39, align 8, !tbaa !68
  %41 = load i64, ptr %9, align 8, !tbaa !43
  %42 = getelementptr inbounds nuw ptr, ptr %40, i64 %41
  %43 = load ptr, ptr %42, align 8, !tbaa !72
  store ptr %43, ptr %10, align 8, !tbaa !72
  call void @llvm.lifetime.start.p0(i64 4, ptr %11) #7
  %44 = load ptr, ptr %10, align 8, !tbaa !72
  %45 = getelementptr inbounds nuw %struct.AVFilterParams, ptr %44, i32 0, i32 1
  %46 = load ptr, ptr %45, align 8, !tbaa !77
  %47 = icmp ne ptr %46, null
  br i1 %47, label %48, label %54

48:                                               ; preds = %37
  %49 = load ptr, ptr %4, align 8, !tbaa !23
  %50 = load ptr, ptr %10, align 8, !tbaa !72
  %51 = getelementptr inbounds nuw %struct.AVFilterParams, ptr %50, i32 0, i32 1
  %52 = load ptr, ptr %51, align 8, !tbaa !77
  %53 = call i32 @fail_creation_pending(ptr noundef %49, ptr noundef %52, ptr noundef @__func__.avfilter_graph_segment_init)
  store i32 %53, ptr %3, align 4
  store i32 1, ptr %7, align 4
  br label %79

54:                                               ; preds = %37
  %55 = load ptr, ptr %10, align 8, !tbaa !72
  %56 = getelementptr inbounds nuw %struct.AVFilterParams, ptr %55, i32 0, i32 0
  %57 = load ptr, ptr %56, align 8, !tbaa !82
  %58 = icmp ne ptr %57, null
  br i1 %58, label %59, label %68

59:                                               ; preds = %54
  %60 = load ptr, ptr %10, align 8, !tbaa !72
  %61 = getelementptr inbounds nuw %struct.AVFilterParams, ptr %60, i32 0, i32 0
  %62 = load ptr, ptr %61, align 8, !tbaa !82
  %63 = call ptr @fffilterctx(ptr noundef %62)
  %64 = getelementptr inbounds nuw %struct.FFFilterContext, ptr %63, i32 0, i32 2
  %65 = load i32, ptr %64, align 8, !tbaa !89
  %66 = and i32 %65, 1
  %67 = icmp ne i32 %66, 0
  br i1 %67, label %68, label %69

68:                                               ; preds = %59, %54
  store i32 7, ptr %7, align 4
  br label %79

69:                                               ; preds = %59
  %70 = load ptr, ptr %10, align 8, !tbaa !72
  %71 = getelementptr inbounds nuw %struct.AVFilterParams, ptr %70, i32 0, i32 0
  %72 = load ptr, ptr %71, align 8, !tbaa !82
  %73 = call i32 @avfilter_init_dict(ptr noundef %72, ptr noundef null)
  store i32 %73, ptr %11, align 4, !tbaa !22
  %74 = load i32, ptr %11, align 4, !tbaa !22
  %75 = icmp slt i32 %74, 0
  br i1 %75, label %76, label %78

76:                                               ; preds = %69
  %77 = load i32, ptr %11, align 4, !tbaa !22
  store i32 %77, ptr %3, align 4
  store i32 1, ptr %7, align 4
  br label %79

78:                                               ; preds = %69
  store i32 0, ptr %7, align 4
  br label %79

79:                                               ; preds = %78, %76, %68, %48
  call void @llvm.lifetime.end.p0(i64 4, ptr %11) #7
  call void @llvm.lifetime.end.p0(i64 8, ptr %10) #7
  %80 = load i32, ptr %7, align 4
  switch i32 %80, label %85 [
    i32 0, label %81
    i32 7, label %82
  ]

81:                                               ; preds = %79
  br label %82

82:                                               ; preds = %81, %79
  %83 = load i64, ptr %9, align 8, !tbaa !43
  %84 = add i64 %83, 1
  store i64 %84, ptr %9, align 8, !tbaa !43
  br label %30, !llvm.loop !92

85:                                               ; preds = %79, %36
  call void @llvm.lifetime.end.p0(i64 8, ptr %9) #7
  %86 = load i32, ptr %7, align 4
  switch i32 %86, label %88 [
    i32 5, label %87
  ]

87:                                               ; preds = %85
  store i32 0, ptr %7, align 4
  br label %88

88:                                               ; preds = %87, %85
  call void @llvm.lifetime.end.p0(i64 8, ptr %8) #7
  %89 = load i32, ptr %7, align 4
  switch i32 %89, label %94 [
    i32 0, label %90
  ]

90:                                               ; preds = %88
  br label %91

91:                                               ; preds = %90
  %92 = load i64, ptr %6, align 8, !tbaa !43
  %93 = add i64 %92, 1
  store i64 %93, ptr %6, align 8, !tbaa !43
  br label %16, !llvm.loop !93

94:                                               ; preds = %88, %22
  call void @llvm.lifetime.end.p0(i64 8, ptr %6) #7
  %95 = load i32, ptr %7, align 4
  switch i32 %95, label %99 [
    i32 2, label %96
    i32 1, label %97
  ]

96:                                               ; preds = %94
  store i32 0, ptr %3, align 4
  br label %97

97:                                               ; preds = %96, %94, %14
  %98 = load i32, ptr %3, align 4
  ret i32 %98

99:                                               ; preds = %94
  unreachable
}