; Function Attrs: nounwind uwtable
define range(i32 -2147483648, 1) i32 @avfilter_graph_segment_init(ptr noundef readonly captures(none) %0, i32 noundef %1) local_unnamed_addr #0 {
  %.not = icmp eq i32 %1, 0
  br i1 %.not, label %.preheader, label %select.unfold

.preheader:                                       ; preds = %2
  %3 = getelementptr inbounds nuw i8, ptr %0, i64 16
  %4 = load i64, ptr %3, align 8, !tbaa !34
  %.not4853.not = icmp eq i64 %4, 0
  br i1 %.not4853.not, label %select.unfold, label %.lr.ph55

.lr.ph55:                                         ; preds = %.preheader
  %5 = getelementptr inbounds nuw i8, ptr %0, i64 8
  br label %6

6:                                                ; preds = %.lr.ph55, %._crit_edge
  %7 = phi i64 [ %4, %.lr.ph55 ], [ %33, %._crit_edge ]
  %.02454 = phi i64 [ 0, %.lr.ph55 ], [ %34, %._crit_edge ]
  %8 = load ptr, ptr %5, align 8, !tbaa !52
  %9 = getelementptr inbounds nuw ptr, ptr %8, i64 %.02454
  %10 = load ptr, ptr %9, align 8, !tbaa !35
  %11 = getelementptr inbounds nuw i8, ptr %10, i64 8
  %12 = load i64, ptr %11, align 8, !tbaa !47
  %.not56 = icmp eq i64 %12, 0
  br i1 %.not56, label %._crit_edge, label %.lr.ph

.lr.ph:                                           ; preds = %6, %29
  %13 = phi i64 [ %30, %29 ], [ %12, %6 ]
  %.02552 = phi i64 [ %31, %29 ], [ 0, %6 ]
  %14 = load ptr, ptr %10, align 8, !tbaa !50
  %15 = getelementptr inbounds nuw ptr, ptr %14, i64 %.02552
  %16 = load ptr, ptr %15, align 8, !tbaa !37
  %17 = getelementptr inbounds nuw i8, ptr %16, i64 8
  %18 = load ptr, ptr %17, align 8, !tbaa !39
  %.not32 = icmp eq ptr %18, null
  br i1 %.not32, label %20, label %19

19:                                               ; preds = %.lr.ph
  %.val = load ptr, ptr %0, align 8, !tbaa !27
  tail call void (ptr, i32, ptr, ...) @av_log(ptr noundef %.val, i32 noundef 16, ptr noundef nonnull @.str.26, ptr noundef nonnull %18, ptr noundef nonnull @__func__.avfilter_graph_segment_init) #7
  br label %select.unfold

20:                                               ; preds = %.lr.ph
  %21 = load ptr, ptr %16, align 8, !tbaa !53
  %.not33 = icmp eq ptr %21, null
  br i1 %.not33, label %29, label %22

22:                                               ; preds = %20
  %23 = getelementptr inbounds nuw i8, ptr %21, i64 160
  %24 = load i32, ptr %23, align 8, !tbaa !60
  %25 = and i32 %24, 1
  %.not34 = icmp eq i32 %25, 0
  br i1 %.not34, label %26, label %29

26:                                               ; preds = %22
  %27 = tail call i32 @avfilter_init_dict(ptr noundef nonnull %21, ptr noundef null) #7
  %28 = icmp slt i32 %27, 0
  br i1 %28, label %select.unfold, label %._crit_edge61

._crit_edge61:                                    ; preds = %26
  %.pre = load i64, ptr %11, align 8, !tbaa !47
  br label %29

29:                                               ; preds = %._crit_edge61, %22, %20
  %30 = phi i64 [ %.pre, %._crit_edge61 ], [ %13, %22 ], [ %13, %20 ]
  %31 = add nuw i64 %.02552, 1
  %32 = icmp ult i64 %31, %30
  br i1 %32, label %.lr.ph, label %._crit_edge.loopexit, !llvm.loop !69

._crit_edge.loopexit:                             ; preds = %29
  %.pre62 = load i64, ptr %3, align 8, !tbaa !34
  br label %._crit_edge

._crit_edge:                                      ; preds = %._crit_edge.loopexit, %6
  %33 = phi i64 [ %.pre62, %._crit_edge.loopexit ], [ %7, %6 ]
  %34 = add nuw i64 %.02454, 1
  %.not48 = icmp ult i64 %34, %33
  br i1 %.not48, label %6, label %select.unfold, !llvm.loop !70

select.unfold:                                    ; preds = %._crit_edge, %26, %.preheader, %19, %2
  %.0 = phi i32 [ -38, %2 ], [ -22, %19 ], [ 0, %.preheader ], [ %27, %26 ], [ 0, %._crit_edge ]
  ret i32 %.0
}